(lp0
(S'boards.txt'
p1
S'/usr/share/arduino/hardware/arduino/boards.txt'
p2
tp3
a(S'board_models'
p4
cino.environment
BoardModels
p5
((lp6
(lp7
S'uno'
p8
a(dp9
S'bootloader'
p10
(dp11
S'extended_fuses'
p12
S'0x05'
p13
sS'high_fuses'
p14
S'0xde'
p15
sS'low_fuses'
p16
S'0xff'
p17
sS'lock_bits'
p18
S'0x0F'
p19
sS'file'
p20
S'optiboot_atmega328.hex'
p21
sS'path'
p22
S'optiboot'
p23
sS'unlock_bits'
p24
S'0x3F'
p25
ssS'upload'
p26
(dp27
S'protocol'
p28
S'arduino'
p29
sS'maximum_size'
p30
S'32256'
p31
sS'speed'
p32
S'115200'
p33
ssS'build'
p34
(dp35
S'core'
p36
S'arduino'
p37
sS'mcu'
p38
S'atmega328p'
p39
sS'f_cpu'
p40
S'16000000L'
p41
sS'variant'
p42
S'standard'
p43
ssS'name'
p44
S'Arduino Uno'
p45
saa(lp46
S'atmega328'
p47
a(dp48
S'bootloader'
p49
(dp50
S'extended_fuses'
p51
S'0x05'
p52
sS'high_fuses'
p53
S'0xDA'
p54
sS'low_fuses'
p55
S'0xFF'
p56
sS'lock_bits'
p57
S'0x0F'
p58
sS'file'
p59
S'ATmegaBOOT_168_atmega328.hex'
p60
sS'path'
p61
S'atmega'
p62
sS'unlock_bits'
p63
S'0x3F'
p64
ssS'upload'
p65
(dp66
S'protocol'
p67
S'arduino'
p68
sS'maximum_size'
p69
S'30720'
p70
sS'speed'
p71
S'57600'
p72
ssS'build'
p73
(dp74
S'core'
p75
S'arduino'
p76
sS'mcu'
p77
S'atmega328p'
p78
sS'f_cpu'
p79
S'16000000L'
p80
sS'variant'
p81
S'standard'
p82
ssS'name'
p83
S'Arduino Duemilanove w/ ATmega328'
p84
saa(lp85
S'diecimila'
p86
a(dp87
S'bootloader'
p88
(dp89
S'extended_fuses'
p90
S'0x00'
p91
sS'high_fuses'
p92
S'0xdd'
p93
sS'low_fuses'
p94
S'0xff'
p95
sS'lock_bits'
p96
S'0x0F'
p97
sS'file'
p98
S'ATmegaBOOT_168_diecimila.hex'
p99
sS'path'
p100
S'atmega'
p101
sS'unlock_bits'
p102
S'0x3F'
p103
ssS'upload'
p104
(dp105
S'protocol'
p106
S'arduino'
p107
sS'maximum_size'
p108
S'14336'
p109
sS'speed'
p110
S'19200'
p111
ssS'build'
p112
(dp113
S'core'
p114
S'arduino'
p115
sS'mcu'
p116
S'atmega168'
p117
sS'f_cpu'
p118
S'16000000L'
p119
sS'variant'
p120
S'standard'
p121
ssS'name'
p122
S'Arduino Diecimila or Duemilanove w/ ATmega168'
p123
saa(lp124
S'nano328'
p125
a(dp126
S'bootloader'
p127
(dp128
S'extended_fuses'
p129
S'0x05'
p130
sS'high_fuses'
p131
S'0xDA'
p132
sS'low_fuses'
p133
S'0xFF'
p134
sS'lock_bits'
p135
S'0x0F'
p136
sS'file'
p137
S'ATmegaBOOT_168_atmega328.hex'
p138
sS'path'
p139
S'atmega'
p140
sS'unlock_bits'
p141
S'0x3F'
p142
ssS'upload'
p143
(dp144
S'protocol'
p145
S'arduino'
p146
sS'maximum_size'
p147
S'30720'
p148
sS'speed'
p149
S'57600'
p150
ssS'build'
p151
(dp152
S'core'
p153
S'arduino'
p154
sS'mcu'
p155
S'atmega328p'
p156
sS'f_cpu'
p157
S'16000000L'
p158
sS'variant'
p159
S'eightanaloginputs'
p160
ssS'name'
p161
S'Arduino Nano w/ ATmega328'
p162
saa(lp163
S'nano'
p164
a(dp165
S'bootloader'
p166
(dp167
S'extended_fuses'
p168
S'0x00'
p169
sS'high_fuses'
p170
S'0xdd'
p171
sS'low_fuses'
p172
S'0xff'
p173
sS'lock_bits'
p174
S'0x0F'
p175
sS'file'
p176
S'ATmegaBOOT_168_diecimila.hex'
p177
sS'path'
p178
S'atmega'
p179
sS'unlock_bits'
p180
S'0x3F'
p181
ssS'upload'
p182
(dp183
S'protocol'
p184
S'arduino'
p185
sS'maximum_size'
p186
S'14336'
p187
sS'speed'
p188
S'19200'
p189
ssS'build'
p190
(dp191
S'core'
p192
S'arduino'
p193
sS'mcu'
p194
S'atmega168'
p195
sS'f_cpu'
p196
S'16000000L'
p197
sS'variant'
p198
S'eightanaloginputs'
p199
ssS'name'
p200
S'Arduino Nano w/ ATmega168'
p201
saa(lp202
S'mega2560'
p203
a(dp204
S'bootloader'
p205
(dp206
S'extended_fuses'
p207
S'0xFD'
p208
sS'high_fuses'
p209
S'0xD8'
p210
sS'low_fuses'
p211
S'0xFF'
p212
sS'lock_bits'
p213
S'0x0F'
p214
sS'file'
p215
S'stk500boot_v2_mega2560.hex'
p216
sS'path'
p217
S'stk500v2'
p218
sS'unlock_bits'
p219
S'0x3F'
p220
ssS'upload'
p221
(dp222
S'protocol'
p223
S'stk500v2'
p224
sS'maximum_size'
p225
S'258048'
p226
sS'speed'
p227
S'115200'
p228
ssS'build'
p229
(dp230
S'core'
p231
S'arduino'
p232
sS'mcu'
p233
S'atmega2560'
p234
sS'f_cpu'
p235
S'16000000L'
p236
sS'variant'
p237
S'mega'
p238
ssS'name'
p239
S'Arduino Mega 2560 or Mega ADK'
p240
saa(lp241
S'mega'
p242
a(dp243
S'bootloader'
p244
(dp245
S'extended_fuses'
p246
S'0xF5'
p247
sS'high_fuses'
p248
S'0xDA'
p249
sS'low_fuses'
p250
S'0xFF'
p251
sS'lock_bits'
p252
S'0x0F'
p253
sS'file'
p254
S'ATmegaBOOT_168_atmega1280.hex'
p255
sS'path'
p256
S'atmega'
p257
sS'unlock_bits'
p258
S'0x3F'
p259
ssS'upload'
p260
(dp261
S'protocol'
p262
S'arduino'
p263
sS'maximum_size'
p264
S'126976'
p265
sS'speed'
p266
S'57600'
p267
ssS'build'
p268
(dp269
S'core'
p270
S'arduino'
p271
sS'mcu'
p272
S'atmega1280'
p273
sS'f_cpu'
p274
S'16000000L'
p275
sS'variant'
p276
S'mega'
p277
ssS'name'
p278
S'Arduino Mega (ATmega1280)'
p279
saa(lp280
S'mini328'
p281
a(dp282
S'bootloader'
p283
(dp284
S'extended_fuses'
p285
S'0x05'
p286
sS'high_fuses'
p287
S'0xd8'
p288
sS'low_fuses'
p289
S'0xff'
p290
sS'lock_bits'
p291
S'0x0F'
p292
sS'file'
p293
S'optiboot_atmega328-Mini.hex'
p294
sS'path'
p295
S'optiboot'
p296
sS'unlock_bits'
p297
S'0x3F'
p298
ssS'upload'
p299
(dp300
S'protocol'
p301
S'stk500'
p302
sS'maximum_size'
p303
S'28672'
p304
sS'speed'
p305
S'115200'
p306
ssS'build'
p307
(dp308
S'core'
p309
S'arduino'
p310
sS'mcu'
p311
S'atmega328p'
p312
sS'f_cpu'
p313
S'16000000L'
p314
sS'variant'
p315
S'eightanaloginputs'
p316
ssS'name'
p317
S'Arduino Mini w/ ATmega328'
p318
saa(lp319
S'mini'
p320
a(dp321
S'bootloader'
p322
(dp323
S'extended_fuses'
p324
S'0x00'
p325
sS'high_fuses'
p326
S'0xdd'
p327
sS'low_fuses'
p328
S'0xff'
p329
sS'lock_bits'
p330
S'0x0F'
p331
sS'file'
p332
S'ATmegaBOOT_168_ng.hex'
p333
sS'path'
p334
S'atmega'
p335
sS'unlock_bits'
p336
S'0x3F'
p337
ssS'upload'
p338
(dp339
S'protocol'
p340
S'arduino'
p341
sS'maximum_size'
p342
S'14336'
p343
sS'speed'
p344
S'19200'
p345
ssS'build'
p346
(dp347
S'core'
p348
S'arduino'
p349
sS'mcu'
p350
S'atmega168'
p351
sS'f_cpu'
p352
S'16000000L'
p353
sS'variant'
p354
S'eightanaloginputs'
p355
ssS'name'
p356
S'Arduino Mini w/ ATmega168'
p357
saa(lp358
S'ethernet'
p359
a(dp360
S'bootloader'
p361
(dp362
S'extended_fuses'
p363
S'0x05'
p364
sS'high_fuses'
p365
S'0xde'
p366
sS'low_fuses'
p367
S'0xff'
p368
sS'lock_bits'
p369
S'0x0F'
p370
sS'file'
p371
S'optiboot_atmega328.hex'
p372
sS'path'
p373
S'optiboot'
p374
sS'unlock_bits'
p375
S'0x3F'
p376
ssS'upload'
p377
(dp378
S'protocol'
p379
S'arduino'
p380
sS'maximum_size'
p381
S'32256'
p382
sS'speed'
p383
S'115200'
p384
ssS'build'
p385
(dp386
S'variant'
p387
S'standard'
p388
sS'mcu'
p389
S'atmega328p'
p390
sS'f_cpu'
p391
S'16000000L'
p392
sS'core'
p393
S'arduino'
p394
ssS'name'
p395
S'Arduino Ethernet'
p396
saa(lp397
S'fio'
p398
a(dp399
S'bootloader'
p400
(dp401
S'extended_fuses'
p402
S'0x05'
p403
sS'high_fuses'
p404
S'0xDA'
p405
sS'low_fuses'
p406
S'0xFF'
p407
sS'lock_bits'
p408
S'0x0F'
p409
sS'file'
p410
S'ATmegaBOOT_168_atmega328_pro_8MHz.hex'
p411
sS'path'
p412
S'arduino:atmega'
p413
sS'unlock_bits'
p414
S'0x3F'
p415
ssS'upload'
p416
(dp417
S'protocol'
p418
S'arduino'
p419
sS'maximum_size'
p420
S'30720'
p421
sS'speed'
p422
S'57600'
p423
ssS'build'
p424
(dp425
S'core'
p426
S'arduino'
p427
sS'mcu'
p428
S'atmega328p'
p429
sS'f_cpu'
p430
S'8000000L'
p431
sS'variant'
p432
S'eightanaloginputs'
p433
ssS'name'
p434
S'Arduino Fio'
p435
saa(lp436
S'bt328'
p437
a(dp438
S'bootloader'
p439
(dp440
S'extended_fuses'
p441
S'0x05'
p442
sS'high_fuses'
p443
S'0xd8'
p444
sS'low_fuses'
p445
S'0xff'
p446
sS'lock_bits'
p447
S'0x0F'
p448
sS'file'
p449
S'ATmegaBOOT_168_atmega328_bt.hex'
p450
sS'path'
p451
S'bt'
p452
sS'unlock_bits'
p453
S'0x3F'
p454
ssS'upload'
p455
(dp456
S'protocol'
p457
S'arduino'
p458
sS'maximum_size'
p459
S'28672'
p460
sS'speed'
p461
S'19200'
p462
sS'disable_flushing'
p463
S'true'
p464
ssS'build'
p465
(dp466
S'core'
p467
S'arduino'
p468
sS'mcu'
p469
S'atmega328p'
p470
sS'f_cpu'
p471
S'16000000L'
p472
sS'variant'
p473
S'eightanaloginputs'
p474
ssS'name'
p475
S'Arduino BT w/ ATmega328'
p476
saa(lp477
S'bt'
p478
a(dp479
S'bootloader'
p480
(dp481
S'extended_fuses'
p482
S'0x00'
p483
sS'high_fuses'
p484
S'0xdd'
p485
sS'low_fuses'
p486
S'0xff'
p487
sS'lock_bits'
p488
S'0x0F'
p489
sS'file'
p490
S'ATmegaBOOT_168.hex'
p491
sS'path'
p492
S'bt'
p493
sS'unlock_bits'
p494
S'0x3F'
p495
ssS'upload'
p496
(dp497
S'protocol'
p498
S'arduino'
p499
sS'maximum_size'
p500
S'14336'
p501
sS'speed'
p502
S'19200'
p503
sS'disable_flushing'
p504
S'true'
p505
ssS'build'
p506
(dp507
S'core'
p508
S'arduino'
p509
sS'mcu'
p510
S'atmega168'
p511
sS'f_cpu'
p512
S'16000000L'
p513
sS'variant'
p514
S'eightanaloginputs'
p515
ssS'name'
p516
S'Arduino BT w/ ATmega168'
p517
saa(lp518
S'lilypad328'
p519
a(dp520
S'bootloader'
p521
(dp522
S'extended_fuses'
p523
S'0x05'
p524
sS'high_fuses'
p525
S'0xDA'
p526
sS'low_fuses'
p527
S'0xFF'
p528
sS'lock_bits'
p529
S'0x0F'
p530
sS'file'
p531
S'ATmegaBOOT_168_atmega328_pro_8MHz.hex'
p532
sS'path'
p533
S'atmega'
p534
sS'unlock_bits'
p535
S'0x3F'
p536
ssS'upload'
p537
(dp538
S'protocol'
p539
S'arduino'
p540
sS'maximum_size'
p541
S'30720'
p542
sS'speed'
p543
S'57600'
p544
ssS'build'
p545
(dp546
S'core'
p547
S'arduino'
p548
sS'mcu'
p549
S'atmega328p'
p550
sS'f_cpu'
p551
S'8000000L'
p552
sS'variant'
p553
S'standard'
p554
ssS'name'
p555
S'LilyPad Arduino w/ ATmega328'
p556
saa(lp557
S'lilypad'
p558
a(dp559
S'bootloader'
p560
(dp561
S'extended_fuses'
p562
S'0x00'
p563
sS'high_fuses'
p564
S'0xdd'
p565
sS'low_fuses'
p566
S'0xe2'
p567
sS'lock_bits'
p568
S'0x0F'
p569
sS'file'
p570
S'LilyPadBOOT_168.hex'
p571
sS'path'
p572
S'lilypad'
p573
sS'unlock_bits'
p574
S'0x3F'
p575
ssS'upload'
p576
(dp577
S'protocol'
p578
S'arduino'
p579
sS'maximum_size'
p580
S'14336'
p581
sS'speed'
p582
S'19200'
p583
ssS'build'
p584
(dp585
S'core'
p586
S'arduino'
p587
sS'mcu'
p588
S'atmega168'
p589
sS'f_cpu'
p590
S'8000000L'
p591
sS'variant'
p592
S'standard'
p593
ssS'name'
p594
S'LilyPad Arduino w/ ATmega168'
p595
saa(lp596
S'pro5v328'
p597
a(dp598
S'bootloader'
p599
(dp600
S'extended_fuses'
p601
S'0x05'
p602
sS'high_fuses'
p603
S'0xDA'
p604
sS'low_fuses'
p605
S'0xFF'
p606
sS'lock_bits'
p607
S'0x0F'
p608
sS'file'
p609
S'ATmegaBOOT_168_atmega328.hex'
p610
sS'path'
p611
S'atmega'
p612
sS'unlock_bits'
p613
S'0x3F'
p614
ssS'upload'
p615
(dp616
S'protocol'
p617
S'arduino'
p618
sS'maximum_size'
p619
S'30720'
p620
sS'speed'
p621
S'57600'
p622
ssS'build'
p623
(dp624
S'core'
p625
S'arduino'
p626
sS'mcu'
p627
S'atmega328p'
p628
sS'f_cpu'
p629
S'16000000L'
p630
sS'variant'
p631
S'standard'
p632
ssS'name'
p633
S'Arduino Pro or Pro Mini (5V, 16 MHz) w/ ATmega328'
p634
saa(lp635
S'pro5v'
p636
a(dp637
S'bootloader'
p638
(dp639
S'extended_fuses'
p640
S'0x00'
p641
sS'high_fuses'
p642
S'0xdd'
p643
sS'low_fuses'
p644
S'0xff'
p645
sS'lock_bits'
p646
S'0x0F'
p647
sS'file'
p648
S'ATmegaBOOT_168_diecimila.hex'
p649
sS'path'
p650
S'atmega'
p651
sS'unlock_bits'
p652
S'0x3F'
p653
ssS'upload'
p654
(dp655
S'protocol'
p656
S'arduino'
p657
sS'maximum_size'
p658
S'14336'
p659
sS'speed'
p660
S'19200'
p661
ssS'build'
p662
(dp663
S'core'
p664
S'arduino'
p665
sS'mcu'
p666
S'atmega168'
p667
sS'f_cpu'
p668
S'16000000L'
p669
sS'variant'
p670
S'standard'
p671
ssS'name'
p672
S'Arduino Pro or Pro Mini (5V, 16 MHz) w/ ATmega168'
p673
saa(lp674
S'pro328'
p675
a(dp676
S'bootloader'
p677
(dp678
S'extended_fuses'
p679
S'0x05'
p680
sS'high_fuses'
p681
S'0xDA'
p682
sS'low_fuses'
p683
S'0xFF'
p684
sS'lock_bits'
p685
S'0x0F'
p686
sS'file'
p687
S'ATmegaBOOT_168_atmega328_pro_8MHz.hex'
p688
sS'path'
p689
S'atmega'
p690
sS'unlock_bits'
p691
S'0x3F'
p692
ssS'upload'
p693
(dp694
S'protocol'
p695
S'arduino'
p696
sS'maximum_size'
p697
S'30720'
p698
sS'speed'
p699
S'57600'
p700
ssS'build'
p701
(dp702
S'core'
p703
S'arduino'
p704
sS'mcu'
p705
S'atmega328p'
p706
sS'f_cpu'
p707
S'8000000L'
p708
sS'variant'
p709
S'standard'
p710
ssS'name'
p711
S'Arduino Pro or Pro Mini (3.3V, 8 MHz) w/ ATmega328'
p712
saa(lp713
S'pro'
p714
a(dp715
S'bootloader'
p716
(dp717
S'extended_fuses'
p718
S'0x00'
p719
sS'high_fuses'
p720
S'0xdd'
p721
sS'low_fuses'
p722
S'0xc6'
p723
sS'lock_bits'
p724
S'0x0F'
p725
sS'file'
p726
S'ATmegaBOOT_168_pro_8MHz.hex'
p727
sS'path'
p728
S'atmega'
p729
sS'unlock_bits'
p730
S'0x3F'
p731
ssS'upload'
p732
(dp733
S'protocol'
p734
S'arduino'
p735
sS'maximum_size'
p736
S'14336'
p737
sS'speed'
p738
S'19200'
p739
ssS'build'
p740
(dp741
S'core'
p742
S'arduino'
p743
sS'mcu'
p744
S'atmega168'
p745
sS'f_cpu'
p746
S'8000000L'
p747
sS'variant'
p748
S'standard'
p749
ssS'name'
p750
S'Arduino Pro or Pro Mini (3.3V, 8 MHz) w/ ATmega168'
p751
saa(lp752
S'atmega168'
p753
a(dp754
S'bootloader'
p755
(dp756
S'extended_fuses'
p757
S'0x00'
p758
sS'high_fuses'
p759
S'0xdd'
p760
sS'low_fuses'
p761
S'0xff'
p762
sS'lock_bits'
p763
S'0x0F'
p764
sS'file'
p765
S'ATmegaBOOT_168_ng.hex'
p766
sS'path'
p767
S'atmega'
p768
sS'unlock_bits'
p769
S'0x3F'
p770
ssS'upload'
p771
(dp772
S'protocol'
p773
S'arduino'
p774
sS'maximum_size'
p775
S'14336'
p776
sS'speed'
p777
S'19200'
p778
ssS'build'
p779
(dp780
S'core'
p781
S'arduino'
p782
sS'mcu'
p783
S'atmega168'
p784
sS'f_cpu'
p785
S'16000000L'
p786
sS'variant'
p787
S'standard'
p788
ssS'name'
p789
S'Arduino NG or older w/ ATmega168'
p790
saa(lp791
S'atmega8'
p792
a(dp793
S'bootloader'
p794
(dp795
S'high_fuses'
p796
S'0xca'
p797
sS'low_fuses'
p798
S'0xdf'
p799
sS'lock_bits'
p800
S'0x0F'
p801
sS'file'
p802
S'ATmegaBOOT.hex'
p803
sS'path'
p804
S'atmega8'
p805
sS'unlock_bits'
p806
S'0x3F'
p807
ssS'upload'
p808
(dp809
S'protocol'
p810
S'arduino'
p811
sS'maximum_size'
p812
S'7168'
p813
sS'speed'
p814
S'19200'
p815
ssS'build'
p816
(dp817
S'core'
p818
S'arduino'
p819
sS'mcu'
p820
S'atmega8'
p821
sS'f_cpu'
p822
S'16000000L'
p823
sS'variant'
p824
S'standard'
p825
ssS'name'
p826
S'Arduino NG or older w/ ATmega8'
p827
saatp828
Rp829
(dp830
S'default'
p831
S'uno'
p832
sbtp833
a(S'build_dir'
p834
S'.build/uno'
p835
tp836
a.