(lp0
(S'elfflags'
p1
ccopy_reg
_reconstructor
p2
(cino.utils
SpaceList
p3
c__builtin__
list
p4
(lp5
S'-Os'
p6
aS'-Wl,--gc-sections'
p7
aS'-mmcu=atmega328p'
p8
atp9
Rp10
tp11
a(S'version.txt'
p12
S'/usr/share/arduino/lib/version.txt'
p13
tp14
a(S'cc'
p15
S'/usr/bin/avr-gcc'
p16
tp17
a(S'cflags'
p18
g2
(g3
g4
(lp19
g8
aS'-ffunction-sections'
p20
aS'-fdata-sections'
p21
aS'-g'
p22
ag6
aS'-w'
p23
aS'-DF_CPU=16000000L'
p24
aS'-DARDUINO=100'
p25
aS'-I/usr/share/arduino/hardware/arduino/cores/arduino'
p26
aS'-I/usr/share/arduino/hardware/arduino/variants/standard'
p27
atp28
Rp29
tp30
a(S'build_dir'
p31
S'.build/uno'
p32
tp33
a(S'arduino_core_dir'
p34
S'/usr/share/arduino/hardware/arduino/cores/arduino'
p35
tp36
a(S'boards.txt'
p37
S'/usr/share/arduino/hardware/arduino/boards.txt'
p38
tp39
a(S'cxxflags'
p40
g2
(g3
g4
(lp41
S'-fno-exceptions'
p42
atp43
Rp44
tp45
a(S'arduino_variants_dir'
p46
S'/usr/share/arduino/hardware/arduino/variants'
p47
tp48
a(S'ar'
p49
S'/usr/bin/avr-ar'
p50
tp51
a(S'names'
p52
(dp53
S'cpp'
p54
S'%s.cpp'
p55
sS'obj'
p56
S'%s.o'
p57
sS'lib'
p58
S'lib%s.a'
p59
sS'deps'
p60
S'%s.d'
p61
stp62
a(g60
g2
(g3
g4
(lp63
tp64
Rp65
tp66
a(S'arduino_libraries_dir'
p67
S'/usr/share/arduino/libraries'
p68
tp69
a(S'arduino_lib_version'
p70
g2
(cino.environment
Version
p71
c__builtin__
tuple
p72
(I1
I0
tp73
tp74
Rp75
tp76
a(S'objcopy'
p77
S'/usr/bin/avr-objcopy'
p78
tp79
a(S'board_models'
p80
cino.environment
BoardModels
p81
((lp82
(lp83
S'uno'
p84
a(dp85
S'bootloader'
p86
(dp87
S'extended_fuses'
p88
S'0x05'
p89
sS'high_fuses'
p90
S'0xde'
p91
sS'low_fuses'
p92
S'0xff'
p93
sS'lock_bits'
p94
S'0x0F'
p95
sS'file'
p96
S'optiboot_atmega328.hex'
p97
sS'path'
p98
S'optiboot'
p99
sS'unlock_bits'
p100
S'0x3F'
p101
ssS'upload'
p102
(dp103
S'protocol'
p104
S'arduino'
p105
sS'maximum_size'
p106
S'32256'
p107
sS'speed'
p108
S'115200'
p109
ssS'build'
p110
(dp111
S'core'
p112
S'arduino'
p113
sS'mcu'
p114
S'atmega328p'
p115
sS'f_cpu'
p116
S'16000000L'
p117
sS'variant'
p118
S'standard'
p119
ssS'name'
p120
S'Arduino Uno'
p121
saa(lp122
S'atmega328'
p123
a(dp124
S'bootloader'
p125
(dp126
S'extended_fuses'
p127
S'0x05'
p128
sS'high_fuses'
p129
S'0xDA'
p130
sS'low_fuses'
p131
S'0xFF'
p132
sS'lock_bits'
p133
S'0x0F'
p134
sS'file'
p135
S'ATmegaBOOT_168_atmega328.hex'
p136
sS'path'
p137
S'atmega'
p138
sS'unlock_bits'
p139
S'0x3F'
p140
ssS'upload'
p141
(dp142
S'protocol'
p143
S'arduino'
p144
sS'maximum_size'
p145
S'30720'
p146
sS'speed'
p147
S'57600'
p148
ssS'build'
p149
(dp150
S'core'
p151
S'arduino'
p152
sS'mcu'
p153
S'atmega328p'
p154
sS'f_cpu'
p155
S'16000000L'
p156
sS'variant'
p157
S'standard'
p158
ssS'name'
p159
S'Arduino Duemilanove w/ ATmega328'
p160
saa(lp161
S'diecimila'
p162
a(dp163
S'bootloader'
p164
(dp165
S'extended_fuses'
p166
S'0x00'
p167
sS'high_fuses'
p168
S'0xdd'
p169
sS'low_fuses'
p170
S'0xff'
p171
sS'lock_bits'
p172
S'0x0F'
p173
sS'file'
p174
S'ATmegaBOOT_168_diecimila.hex'
p175
sS'path'
p176
S'atmega'
p177
sS'unlock_bits'
p178
S'0x3F'
p179
ssS'upload'
p180
(dp181
S'protocol'
p182
S'arduino'
p183
sS'maximum_size'
p184
S'14336'
p185
sS'speed'
p186
S'19200'
p187
ssS'build'
p188
(dp189
S'core'
p190
S'arduino'
p191
sS'mcu'
p192
S'atmega168'
p193
sS'f_cpu'
p194
S'16000000L'
p195
sS'variant'
p196
S'standard'
p197
ssS'name'
p198
S'Arduino Diecimila or Duemilanove w/ ATmega168'
p199
saa(lp200
S'nano328'
p201
a(dp202
S'bootloader'
p203
(dp204
S'extended_fuses'
p205
S'0x05'
p206
sS'high_fuses'
p207
S'0xDA'
p208
sS'low_fuses'
p209
S'0xFF'
p210
sS'lock_bits'
p211
S'0x0F'
p212
sS'file'
p213
S'ATmegaBOOT_168_atmega328.hex'
p214
sS'path'
p215
S'atmega'
p216
sS'unlock_bits'
p217
S'0x3F'
p218
ssS'upload'
p219
(dp220
S'protocol'
p221
S'arduino'
p222
sS'maximum_size'
p223
S'30720'
p224
sS'speed'
p225
S'57600'
p226
ssS'build'
p227
(dp228
S'core'
p229
S'arduino'
p230
sS'mcu'
p231
S'atmega328p'
p232
sS'f_cpu'
p233
S'16000000L'
p234
sS'variant'
p235
S'eightanaloginputs'
p236
ssS'name'
p237
S'Arduino Nano w/ ATmega328'
p238
saa(lp239
S'nano'
p240
a(dp241
S'bootloader'
p242
(dp243
S'extended_fuses'
p244
S'0x00'
p245
sS'high_fuses'
p246
S'0xdd'
p247
sS'low_fuses'
p248
S'0xff'
p249
sS'lock_bits'
p250
S'0x0F'
p251
sS'file'
p252
S'ATmegaBOOT_168_diecimila.hex'
p253
sS'path'
p254
S'atmega'
p255
sS'unlock_bits'
p256
S'0x3F'
p257
ssS'upload'
p258
(dp259
S'protocol'
p260
S'arduino'
p261
sS'maximum_size'
p262
S'14336'
p263
sS'speed'
p264
S'19200'
p265
ssS'build'
p266
(dp267
S'core'
p268
S'arduino'
p269
sS'mcu'
p270
S'atmega168'
p271
sS'f_cpu'
p272
S'16000000L'
p273
sS'variant'
p274
S'eightanaloginputs'
p275
ssS'name'
p276
S'Arduino Nano w/ ATmega168'
p277
saa(lp278
S'mega2560'
p279
a(dp280
S'bootloader'
p281
(dp282
S'extended_fuses'
p283
S'0xFD'
p284
sS'high_fuses'
p285
S'0xD8'
p286
sS'low_fuses'
p287
S'0xFF'
p288
sS'lock_bits'
p289
S'0x0F'
p290
sS'file'
p291
S'stk500boot_v2_mega2560.hex'
p292
sS'path'
p293
S'stk500v2'
p294
sS'unlock_bits'
p295
S'0x3F'
p296
ssS'upload'
p297
(dp298
S'protocol'
p299
S'stk500v2'
p300
sS'maximum_size'
p301
S'258048'
p302
sS'speed'
p303
S'115200'
p304
ssS'build'
p305
(dp306
S'core'
p307
S'arduino'
p308
sS'mcu'
p309
S'atmega2560'
p310
sS'f_cpu'
p311
S'16000000L'
p312
sS'variant'
p313
S'mega'
p314
ssS'name'
p315
S'Arduino Mega 2560 or Mega ADK'
p316
saa(lp317
S'mega'
p318
a(dp319
S'bootloader'
p320
(dp321
S'extended_fuses'
p322
S'0xF5'
p323
sS'high_fuses'
p324
S'0xDA'
p325
sS'low_fuses'
p326
S'0xFF'
p327
sS'lock_bits'
p328
S'0x0F'
p329
sS'file'
p330
S'ATmegaBOOT_168_atmega1280.hex'
p331
sS'path'
p332
S'atmega'
p333
sS'unlock_bits'
p334
S'0x3F'
p335
ssS'upload'
p336
(dp337
S'protocol'
p338
S'arduino'
p339
sS'maximum_size'
p340
S'126976'
p341
sS'speed'
p342
S'57600'
p343
ssS'build'
p344
(dp345
S'core'
p346
S'arduino'
p347
sS'mcu'
p348
S'atmega1280'
p349
sS'f_cpu'
p350
S'16000000L'
p351
sS'variant'
p352
S'mega'
p353
ssS'name'
p354
S'Arduino Mega (ATmega1280)'
p355
saa(lp356
S'mini328'
p357
a(dp358
S'bootloader'
p359
(dp360
S'extended_fuses'
p361
S'0x05'
p362
sS'high_fuses'
p363
S'0xd8'
p364
sS'low_fuses'
p365
S'0xff'
p366
sS'lock_bits'
p367
S'0x0F'
p368
sS'file'
p369
S'optiboot_atmega328-Mini.hex'
p370
sS'path'
p371
S'optiboot'
p372
sS'unlock_bits'
p373
S'0x3F'
p374
ssS'upload'
p375
(dp376
S'protocol'
p377
S'stk500'
p378
sS'maximum_size'
p379
S'28672'
p380
sS'speed'
p381
S'115200'
p382
ssS'build'
p383
(dp384
S'core'
p385
S'arduino'
p386
sS'mcu'
p387
S'atmega328p'
p388
sS'f_cpu'
p389
S'16000000L'
p390
sS'variant'
p391
S'eightanaloginputs'
p392
ssS'name'
p393
S'Arduino Mini w/ ATmega328'
p394
saa(lp395
S'mini'
p396
a(dp397
S'bootloader'
p398
(dp399
S'extended_fuses'
p400
S'0x00'
p401
sS'high_fuses'
p402
S'0xdd'
p403
sS'low_fuses'
p404
S'0xff'
p405
sS'lock_bits'
p406
S'0x0F'
p407
sS'file'
p408
S'ATmegaBOOT_168_ng.hex'
p409
sS'path'
p410
S'atmega'
p411
sS'unlock_bits'
p412
S'0x3F'
p413
ssS'upload'
p414
(dp415
S'protocol'
p416
S'arduino'
p417
sS'maximum_size'
p418
S'14336'
p419
sS'speed'
p420
S'19200'
p421
ssS'build'
p422
(dp423
S'core'
p424
S'arduino'
p425
sS'mcu'
p426
S'atmega168'
p427
sS'f_cpu'
p428
S'16000000L'
p429
sS'variant'
p430
S'eightanaloginputs'
p431
ssS'name'
p432
S'Arduino Mini w/ ATmega168'
p433
saa(lp434
S'ethernet'
p435
a(dp436
S'bootloader'
p437
(dp438
S'extended_fuses'
p439
S'0x05'
p440
sS'high_fuses'
p441
S'0xde'
p442
sS'low_fuses'
p443
S'0xff'
p444
sS'lock_bits'
p445
S'0x0F'
p446
sS'file'
p447
S'optiboot_atmega328.hex'
p448
sS'path'
p449
S'optiboot'
p450
sS'unlock_bits'
p451
S'0x3F'
p452
ssS'upload'
p453
(dp454
S'protocol'
p455
S'arduino'
p456
sS'maximum_size'
p457
S'32256'
p458
sS'speed'
p459
S'115200'
p460
ssS'build'
p461
(dp462
S'variant'
p463
S'standard'
p464
sS'mcu'
p465
S'atmega328p'
p466
sS'f_cpu'
p467
S'16000000L'
p468
sS'core'
p469
S'arduino'
p470
ssS'name'
p471
S'Arduino Ethernet'
p472
saa(lp473
S'fio'
p474
a(dp475
S'bootloader'
p476
(dp477
S'extended_fuses'
p478
S'0x05'
p479
sS'high_fuses'
p480
S'0xDA'
p481
sS'low_fuses'
p482
S'0xFF'
p483
sS'lock_bits'
p484
S'0x0F'
p485
sS'file'
p486
S'ATmegaBOOT_168_atmega328_pro_8MHz.hex'
p487
sS'path'
p488
S'arduino:atmega'
p489
sS'unlock_bits'
p490
S'0x3F'
p491
ssS'upload'
p492
(dp493
S'protocol'
p494
S'arduino'
p495
sS'maximum_size'
p496
S'30720'
p497
sS'speed'
p498
S'57600'
p499
ssS'build'
p500
(dp501
S'core'
p502
S'arduino'
p503
sS'mcu'
p504
S'atmega328p'
p505
sS'f_cpu'
p506
S'8000000L'
p507
sS'variant'
p508
S'eightanaloginputs'
p509
ssS'name'
p510
S'Arduino Fio'
p511
saa(lp512
S'bt328'
p513
a(dp514
S'bootloader'
p515
(dp516
S'extended_fuses'
p517
S'0x05'
p518
sS'high_fuses'
p519
S'0xd8'
p520
sS'low_fuses'
p521
S'0xff'
p522
sS'lock_bits'
p523
S'0x0F'
p524
sS'file'
p525
S'ATmegaBOOT_168_atmega328_bt.hex'
p526
sS'path'
p527
S'bt'
p528
sS'unlock_bits'
p529
S'0x3F'
p530
ssS'upload'
p531
(dp532
S'protocol'
p533
S'arduino'
p534
sS'maximum_size'
p535
S'28672'
p536
sS'speed'
p537
S'19200'
p538
sS'disable_flushing'
p539
S'true'
p540
ssS'build'
p541
(dp542
S'core'
p543
S'arduino'
p544
sS'mcu'
p545
S'atmega328p'
p546
sS'f_cpu'
p547
S'16000000L'
p548
sS'variant'
p549
S'eightanaloginputs'
p550
ssS'name'
p551
S'Arduino BT w/ ATmega328'
p552
saa(lp553
S'bt'
p554
a(dp555
S'bootloader'
p556
(dp557
S'extended_fuses'
p558
S'0x00'
p559
sS'high_fuses'
p560
S'0xdd'
p561
sS'low_fuses'
p562
S'0xff'
p563
sS'lock_bits'
p564
S'0x0F'
p565
sS'file'
p566
S'ATmegaBOOT_168.hex'
p567
sS'path'
p568
S'bt'
p569
sS'unlock_bits'
p570
S'0x3F'
p571
ssS'upload'
p572
(dp573
S'protocol'
p574
S'arduino'
p575
sS'maximum_size'
p576
S'14336'
p577
sS'speed'
p578
S'19200'
p579
sS'disable_flushing'
p580
S'true'
p581
ssS'build'
p582
(dp583
S'core'
p584
S'arduino'
p585
sS'mcu'
p586
S'atmega168'
p587
sS'f_cpu'
p588
S'16000000L'
p589
sS'variant'
p590
S'eightanaloginputs'
p591
ssS'name'
p592
S'Arduino BT w/ ATmega168'
p593
saa(lp594
S'lilypad328'
p595
a(dp596
S'bootloader'
p597
(dp598
S'extended_fuses'
p599
S'0x05'
p600
sS'high_fuses'
p601
S'0xDA'
p602
sS'low_fuses'
p603
S'0xFF'
p604
sS'lock_bits'
p605
S'0x0F'
p606
sS'file'
p607
S'ATmegaBOOT_168_atmega328_pro_8MHz.hex'
p608
sS'path'
p609
S'atmega'
p610
sS'unlock_bits'
p611
S'0x3F'
p612
ssS'upload'
p613
(dp614
S'protocol'
p615
S'arduino'
p616
sS'maximum_size'
p617
S'30720'
p618
sS'speed'
p619
S'57600'
p620
ssS'build'
p621
(dp622
S'core'
p623
S'arduino'
p624
sS'mcu'
p625
S'atmega328p'
p626
sS'f_cpu'
p627
S'8000000L'
p628
sS'variant'
p629
S'standard'
p630
ssS'name'
p631
S'LilyPad Arduino w/ ATmega328'
p632
saa(lp633
S'lilypad'
p634
a(dp635
S'bootloader'
p636
(dp637
S'extended_fuses'
p638
S'0x00'
p639
sS'high_fuses'
p640
S'0xdd'
p641
sS'low_fuses'
p642
S'0xe2'
p643
sS'lock_bits'
p644
S'0x0F'
p645
sS'file'
p646
S'LilyPadBOOT_168.hex'
p647
sS'path'
p648
S'lilypad'
p649
sS'unlock_bits'
p650
S'0x3F'
p651
ssS'upload'
p652
(dp653
S'protocol'
p654
S'arduino'
p655
sS'maximum_size'
p656
S'14336'
p657
sS'speed'
p658
S'19200'
p659
ssS'build'
p660
(dp661
S'core'
p662
S'arduino'
p663
sS'mcu'
p664
S'atmega168'
p665
sS'f_cpu'
p666
S'8000000L'
p667
sS'variant'
p668
S'standard'
p669
ssS'name'
p670
S'LilyPad Arduino w/ ATmega168'
p671
saa(lp672
S'pro5v328'
p673
a(dp674
S'bootloader'
p675
(dp676
S'extended_fuses'
p677
S'0x05'
p678
sS'high_fuses'
p679
S'0xDA'
p680
sS'low_fuses'
p681
S'0xFF'
p682
sS'lock_bits'
p683
S'0x0F'
p684
sS'file'
p685
S'ATmegaBOOT_168_atmega328.hex'
p686
sS'path'
p687
S'atmega'
p688
sS'unlock_bits'
p689
S'0x3F'
p690
ssS'upload'
p691
(dp692
S'protocol'
p693
S'arduino'
p694
sS'maximum_size'
p695
S'30720'
p696
sS'speed'
p697
S'57600'
p698
ssS'build'
p699
(dp700
S'core'
p701
S'arduino'
p702
sS'mcu'
p703
S'atmega328p'
p704
sS'f_cpu'
p705
S'16000000L'
p706
sS'variant'
p707
S'standard'
p708
ssS'name'
p709
S'Arduino Pro or Pro Mini (5V, 16 MHz) w/ ATmega328'
p710
saa(lp711
S'pro5v'
p712
a(dp713
S'bootloader'
p714
(dp715
S'extended_fuses'
p716
S'0x00'
p717
sS'high_fuses'
p718
S'0xdd'
p719
sS'low_fuses'
p720
S'0xff'
p721
sS'lock_bits'
p722
S'0x0F'
p723
sS'file'
p724
S'ATmegaBOOT_168_diecimila.hex'
p725
sS'path'
p726
S'atmega'
p727
sS'unlock_bits'
p728
S'0x3F'
p729
ssS'upload'
p730
(dp731
S'protocol'
p732
S'arduino'
p733
sS'maximum_size'
p734
S'14336'
p735
sS'speed'
p736
S'19200'
p737
ssS'build'
p738
(dp739
S'core'
p740
S'arduino'
p741
sS'mcu'
p742
S'atmega168'
p743
sS'f_cpu'
p744
S'16000000L'
p745
sS'variant'
p746
S'standard'
p747
ssS'name'
p748
S'Arduino Pro or Pro Mini (5V, 16 MHz) w/ ATmega168'
p749
saa(lp750
S'pro328'
p751
a(dp752
S'bootloader'
p753
(dp754
S'extended_fuses'
p755
S'0x05'
p756
sS'high_fuses'
p757
S'0xDA'
p758
sS'low_fuses'
p759
S'0xFF'
p760
sS'lock_bits'
p761
S'0x0F'
p762
sS'file'
p763
S'ATmegaBOOT_168_atmega328_pro_8MHz.hex'
p764
sS'path'
p765
S'atmega'
p766
sS'unlock_bits'
p767
S'0x3F'
p768
ssS'upload'
p769
(dp770
S'protocol'
p771
S'arduino'
p772
sS'maximum_size'
p773
S'30720'
p774
sS'speed'
p775
S'57600'
p776
ssS'build'
p777
(dp778
S'core'
p779
S'arduino'
p780
sS'mcu'
p781
S'atmega328p'
p782
sS'f_cpu'
p783
S'8000000L'
p784
sS'variant'
p785
S'standard'
p786
ssS'name'
p787
S'Arduino Pro or Pro Mini (3.3V, 8 MHz) w/ ATmega328'
p788
saa(lp789
S'pro'
p790
a(dp791
S'bootloader'
p792
(dp793
S'extended_fuses'
p794
S'0x00'
p795
sS'high_fuses'
p796
S'0xdd'
p797
sS'low_fuses'
p798
S'0xc6'
p799
sS'lock_bits'
p800
S'0x0F'
p801
sS'file'
p802
S'ATmegaBOOT_168_pro_8MHz.hex'
p803
sS'path'
p804
S'atmega'
p805
sS'unlock_bits'
p806
S'0x3F'
p807
ssS'upload'
p808
(dp809
S'protocol'
p810
S'arduino'
p811
sS'maximum_size'
p812
S'14336'
p813
sS'speed'
p814
S'19200'
p815
ssS'build'
p816
(dp817
S'core'
p818
S'arduino'
p819
sS'mcu'
p820
S'atmega168'
p821
sS'f_cpu'
p822
S'8000000L'
p823
sS'variant'
p824
S'standard'
p825
ssS'name'
p826
S'Arduino Pro or Pro Mini (3.3V, 8 MHz) w/ ATmega168'
p827
saa(lp828
S'atmega168'
p829
a(dp830
S'bootloader'
p831
(dp832
S'extended_fuses'
p833
S'0x00'
p834
sS'high_fuses'
p835
S'0xdd'
p836
sS'low_fuses'
p837
S'0xff'
p838
sS'lock_bits'
p839
S'0x0F'
p840
sS'file'
p841
S'ATmegaBOOT_168_ng.hex'
p842
sS'path'
p843
S'atmega'
p844
sS'unlock_bits'
p845
S'0x3F'
p846
ssS'upload'
p847
(dp848
S'protocol'
p849
S'arduino'
p850
sS'maximum_size'
p851
S'14336'
p852
sS'speed'
p853
S'19200'
p854
ssS'build'
p855
(dp856
S'core'
p857
S'arduino'
p858
sS'mcu'
p859
S'atmega168'
p860
sS'f_cpu'
p861
S'16000000L'
p862
sS'variant'
p863
S'standard'
p864
ssS'name'
p865
S'Arduino NG or older w/ ATmega168'
p866
saa(lp867
S'atmega8'
p868
a(dp869
S'bootloader'
p870
(dp871
S'high_fuses'
p872
S'0xca'
p873
sS'low_fuses'
p874
S'0xdf'
p875
sS'lock_bits'
p876
S'0x0F'
p877
sS'file'
p878
S'ATmegaBOOT.hex'
p879
sS'path'
p880
S'atmega8'
p881
sS'unlock_bits'
p882
S'0x3F'
p883
ssS'upload'
p884
(dp885
S'protocol'
p886
S'arduino'
p887
sS'maximum_size'
p888
S'7168'
p889
sS'speed'
p890
S'19200'
p891
ssS'build'
p892
(dp893
S'core'
p894
S'arduino'
p895
sS'mcu'
p896
S'atmega8'
p897
sS'f_cpu'
p898
S'16000000L'
p899
sS'variant'
p900
S'standard'
p901
ssS'name'
p902
S'Arduino NG or older w/ ATmega8'
p903
saatp904
Rp905
(dp906
S'default'
p907
S'uno'
p908
sbtp909
a(S'cxx'
p910
S'/usr/bin/avr-g++'
p911
tp912
a.